; Function Attrs: nounwind uwtable
define ptr @l_Lean_Elab_PartialFixpoint_mkAdmProj___lambda__2(ptr noundef %0, ptr readnone captures(none) %1, ptr noundef %2, ptr noundef %3, ptr noundef %4, ptr noundef %5, ptr noundef %6) local_unnamed_addr #0 {
  %8 = tail call ptr @l_Lean_MessageData_ofExpr(ptr noundef %0) #6
  %9 = load ptr, ptr @l_Lean_Elab_PartialFixpoint_mkAdmProj___lambda__2___closed__2, align 8, !tbaa !9
  tail call void @lean_inc_heartbeat() #6
  %10 = tail call noalias ptr @mi_malloc_small(i64 noundef 24) #6
  %11 = icmp eq ptr %10, null
  br i1 %11, label %12, label %lean_alloc_ctor.exit

12:                                               ; preds = %7
  tail call void @lean_internal_panic_out_of_memory() #7
  unreachable

lean_alloc_ctor.exit:                             ; preds = %7
  %13 = getelementptr inbounds nuw i8, ptr %10, i64 4
  store i32 1, ptr %10, align 4, !tbaa !4
  store i32 117571608, ptr %13, align 4
  %14 = getelementptr inbounds nuw i8, ptr %10, i64 8
  store ptr %9, ptr %14, align 8, !tbaa !9
  %15 = getelementptr inbounds nuw i8, ptr %10, i64 16
  store ptr %8, ptr %15, align 8, !tbaa !9
  %16 = load ptr, ptr @l_Lean_Elab_PartialFixpoint_mkAdmProj___lambda__2___closed__4, align 8, !tbaa !9
  tail call void @lean_inc_heartbeat() #6
  %17 = tail call noalias ptr @mi_malloc_small(i64 noundef 24) #6
  %18 = icmp eq ptr %17, null
  br i1 %18, label %19, label %lean_alloc_ctor.exit16

19:                                               ; preds = %lean_alloc_ctor.exit
  tail call void @lean_internal_panic_out_of_memory() #7
  unreachable

lean_alloc_ctor.exit16:                           ; preds = %lean_alloc_ctor.exit
  %20 = getelementptr inbounds nuw i8, ptr %17, i64 4
  store i32 1, ptr %17, align 4, !tbaa !4
  store i32 117571608, ptr %20, align 4
  %21 = getelementptr inbounds nuw i8, ptr %17, i64 8
  store ptr %10, ptr %21, align 8, !tbaa !9
  %22 = getelementptr inbounds nuw i8, ptr %17, i64 16
  store ptr %16, ptr %22, align 8, !tbaa !9
  %23 = tail call ptr @l_Lean_throwError___at_Lean_Expr_abstractRangeM___spec__1(ptr noundef nonnull %17, ptr noundef %2, ptr noundef %3, ptr noundef %4, ptr noundef %5, ptr noundef %6) #6
  ret ptr %23
}